; Function Attrs: mustprogress uwtable
define hidden noundef double @_ZN10sls_engine13serious_scoreEP9func_declRK3mpz(ptr noundef nonnull align 8 dereferenceable(1496) %0, ptr noundef %1, ptr noundef nonnull align 8 dereferenceable(16) %2) local_unnamed_addr #3 align 2 {
  %4 = getelementptr inbounds nuw i8, ptr %0, i64 1168
  tail call void @_ZN13sls_evaluator14serious_updateEP9func_declRK3mpz(ptr noundef nonnull align 8 dereferenceable(264) %4, ptr noundef %1, ptr noundef nonnull align 8 dereferenceable(16) %2)
  %5 = getelementptr inbounds nuw i8, ptr %0, i64 16
  %6 = load i32, ptr %5, align 8, !tbaa !241
  %7 = add i32 %6, 1
  store i32 %7, ptr %5, align 8, !tbaa !241
  %8 = getelementptr inbounds nuw i8, ptr %0, i64 1136
  %9 = load double, ptr %8, align 8, !tbaa !161
  ret double %9
}